	.file	"init.c"
	.text
.Ltext0:
	.file 0 "/home/kyarch/Developer/os_lab/lab" "kern/init.c"
	.section	.rodata.str1.1,"aMS",@progbits,1
.LC0:
	.string	"entering test_backtrace %d\n"
.LC1:
	.string	"leaving test_backtrace %d\n"
	.text
	.p2align 4
	.globl	test_backtrace
	.type	test_backtrace, @function
test_backtrace:
.LVL0:
.LFB0:
	.file 1 "kern/init.c"
	.loc 1 13 1 view -0
	.cfi_startproc
	.loc 1 14 2 view .LVU1
	.loc 1 13 1 is_stmt 0 view .LVU2
	pushq	%r15
	.cfi_def_cfa_offset 16
	.cfi_offset 15, -16
	.loc 1 14 2 view .LVU3
	movl	%edi, %esi
	xorl	%eax, %eax
	.loc 1 13 1 view .LVU4
	pushq	%r14
	.cfi_def_cfa_offset 24
	.cfi_offset 14, -24
	pushq	%r13
	.cfi_def_cfa_offset 32
	.cfi_offset 13, -32
	pushq	%r12
	.cfi_def_cfa_offset 40
	.cfi_offset 12, -40
	pushq	%rbp
	.cfi_def_cfa_offset 48
	.cfi_offset 6, -48
	.loc 1 14 2 view .LVU5
	leaq	.LC0(%rip), %rbp
	.loc 1 13 1 view .LVU6
	pushq	%rbx
	.cfi_def_cfa_offset 56
	.cfi_offset 3, -56
	movl	%edi, %ebx
	.loc 1 14 2 view .LVU7
	movq	%rbp, %rdi
.LVL1:
	.loc 1 13 1 view .LVU8
	subq	$8, %rsp
	.cfi_def_cfa_offset 64
	.loc 1 14 2 view .LVU9
	call	cprintf@PLT
.LVL2:
	.loc 1 15 2 is_stmt 1 view .LVU10
	.loc 1 15 5 is_stmt 0 view .LVU11
	testl	%ebx, %ebx
	jle	.L2
	.loc 1 16 3 is_stmt 1 view .LVU12
	leal	-1(%rbx), %r12d
.LVL3:
.LBB10:
.LBI10:
	.loc 1 12 1 view .LVU13
.LBB11:
	.loc 1 14 2 view .LVU14
	xorl	%eax, %eax
	movq	%rbp, %rdi
	movl	%r12d, %esi
	call	cprintf@PLT
.LVL4:
	.loc 1 15 2 view .LVU15
	.loc 1 15 5 is_stmt 0 view .LVU16
	testl	%r12d, %r12d
	je	.L3
	.loc 1 16 3 is_stmt 1 view .LVU17
	leal	-2(%rbx), %r13d
.LVL5:
.LBB12:
.LBI12:
	.loc 1 12 1 view .LVU18
.LBB13:
	.loc 1 14 2 view .LVU19
	xorl	%eax, %eax
	movq	%rbp, %rdi
	movl	%r13d, %esi
	call	cprintf@PLT
.LVL6:
	.loc 1 15 2 view .LVU20
	.loc 1 15 5 is_stmt 0 view .LVU21
	testl	%r13d, %r13d
	je	.L4
	.loc 1 16 3 is_stmt 1 view .LVU22
	leal	-3(%rbx), %r14d
.LVL7:
.LBB14:
.LBI14:
	.loc 1 12 1 view .LVU23
.LBB15:
	.loc 1 14 2 view .LVU24
	xorl	%eax, %eax
	movq	%rbp, %rdi
	movl	%r14d, %esi
	call	cprintf@PLT
.LVL8:
	.loc 1 15 2 view .LVU25
	.loc 1 15 5 is_stmt 0 view .LVU26
	testl	%r14d, %r14d
	je	.L5
	.loc 1 16 3 is_stmt 1 view .LVU27
	leal	-4(%rbx), %r15d
.LVL9:
.LBB16:
.LBI16:
	.loc 1 12 1 view .LVU28
.LBB17:
	.loc 1 14 2 view .LVU29
	xorl	%eax, %eax
	movq	%rbp, %rdi
	movl	%r15d, %esi
	call	cprintf@PLT
.LVL10:
	.loc 1 15 2 view .LVU30
	.loc 1 15 5 is_stmt 0 view .LVU31
	testl	%r15d, %r15d
	je	.L6
	.loc 1 16 3 is_stmt 1 view .LVU32
	leal	-5(%rbx), %edi
	call	test_backtrace
.LVL11:
.L7:
	.loc 1 19 2 view .LVU33
	leaq	.LC1(%rip), %rbp
	movl	%r15d, %esi
	xorl	%eax, %eax
	movq	%rbp, %rdi
	call	cprintf@PLT
.LVL12:
.L8:
	.loc 1 19 2 is_stmt 0 view .LVU34
.LBE17:
.LBE16:
	.loc 1 19 2 is_stmt 1 view .LVU35
	movl	%r14d, %esi
	movq	%rbp, %rdi
	xorl	%eax, %eax
	call	cprintf@PLT
.LVL13:
.L9:
	.loc 1 19 2 is_stmt 0 view .LVU36
.LBE15:
.LBE14:
	.loc 1 19 2 is_stmt 1 view .LVU37
	movl	%r13d, %esi
	movq	%rbp, %rdi
	xorl	%eax, %eax
	call	cprintf@PLT
.LVL14:
	.loc 1 20 1 is_stmt 0 view .LVU38
	jmp	.L10
	.p2align 4,,10
	.p2align 3
.L3:
.LBE13:
.LBE12:
	.loc 1 18 3 is_stmt 1 view .LVU39
	xorl	%edx, %edx
	xorl	%esi, %esi
	leaq	.LC1(%rip), %rbp
	xorl	%edi, %edi
	call	mon_backtrace@PLT
.LVL15:
.L10:
	.loc 1 19 2 view .LVU40
	movl	%r12d, %esi
	movq	%rbp, %rdi
	xorl	%eax, %eax
	call	cprintf@PLT
.LVL16:
.L11:
	.loc 1 19 2 is_stmt 0 view .LVU41
.LBE11:
.LBE10:
	.loc 1 19 2 is_stmt 1 view .LVU42
	.loc 1 20 1 is_stmt 0 view .LVU43
	addq	$8, %rsp
	.cfi_remember_state
	.cfi_def_cfa_offset 56
	.loc 1 19 2 view .LVU44
	movl	%ebx, %esi
	movq	%rbp, %rdi
	xorl	%eax, %eax
	.loc 1 20 1 view .LVU45
	popq	%rbx
	.cfi_def_cfa_offset 48
.LVL17:
	.loc 1 20 1 view .LVU46
	popq	%rbp
	.cfi_def_cfa_offset 40
	popq	%r12
	.cfi_def_cfa_offset 32
	popq	%r13
	.cfi_def_cfa_offset 24
	popq	%r14
	.cfi_def_cfa_offset 16
	popq	%r15
	.cfi_def_cfa_offset 8
	.loc 1 19 2 view .LVU47
	jmp	cprintf@PLT
.LVL18:
	.p2align 4,,10
	.p2align 3
.L2:
	.cfi_restore_state
	.loc 1 18 3 is_stmt 1 view .LVU48
	xorl	%edx, %edx
	xorl	%esi, %esi
	leaq	.LC1(%rip), %rbp
	xorl	%edi, %edi
	call	mon_backtrace@PLT
.LVL19:
	jmp	.L11
.LVL20:
	.p2align 4,,10
	.p2align 3
.L5:
.LBB27:
.LBB26:
.LBB25:
.LBB24:
.LBB22:
.LBB20:
	.loc 1 18 3 view .LVU49
	xorl	%edx, %edx
	xorl	%esi, %esi
	leaq	.LC1(%rip), %rbp
	xorl	%edi, %edi
	call	mon_backtrace@PLT
.LVL21:
	jmp	.L8
.LVL22:
	.p2align 4,,10
	.p2align 3
.L4:
	.loc 1 18 3 is_stmt 0 view .LVU50
.LBE20:
.LBE22:
	.loc 1 18 3 is_stmt 1 view .LVU51
	xorl	%edx, %edx
	xorl	%esi, %esi
	leaq	.LC1(%rip), %rbp
	xorl	%edi, %edi
	call	mon_backtrace@PLT
.LVL23:
	jmp	.L9
.LVL24:
	.p2align 4,,10
	.p2align 3
.L6:
.LBB23:
.LBB21:
.LBB19:
.LBB18:
	.loc 1 18 3 view .LVU52
	xorl	%edx, %edx
	xorl	%esi, %esi
	xorl	%edi, %edi
	call	mon_backtrace@PLT
.LVL25:
	jmp	.L7
.LBE18:
.LBE19:
.LBE21:
.LBE23:
.LBE24:
.LBE25:
.LBE26:
.LBE27:
	.cfi_endproc
.LFE0:
	.size	test_backtrace, .-test_backtrace
	.section	.rodata.str1.1
.LC2:
	.string	"6828 decimal is %o octal!\n"
	.text
	.p2align 4
	.globl	i386_init
	.type	i386_init, @function
i386_init:
.LFB1:
	.loc 1 24 1 view -0
	.cfi_startproc
	.loc 1 25 2 view .LVU54
	.loc 1 30 2 view .LVU55
	.loc 1 30 23 is_stmt 0 view .LVU56
	leaq	edata(%rip), %rdi
	.loc 1 30 2 view .LVU57
	leaq	end(%rip), %rdx
	.loc 1 24 1 view .LVU58
	subq	$8, %rsp
	.cfi_def_cfa_offset 16
	.loc 1 30 2 view .LVU59
	xorl	%esi, %esi
	subl	%edi, %edx
	call	memset@PLT
.LVL26:
	.loc 1 34 2 is_stmt 1 view .LVU60
	call	cons_init@PLT
.LVL27:
	.loc 1 36 2 view .LVU61
	leaq	.LC2(%rip), %rdi
	movl	$6828, %esi
	xorl	%eax, %eax
	call	cprintf@PLT
.LVL28:
	.loc 1 39 2 view .LVU62
	movl	$5, %edi
	call	test_backtrace
.LVL29:
	.p2align 4,,10
	.p2align 3
.L15:
	.loc 1 42 2 view .LVU63
	.loc 1 43 3 discriminator 1 view .LVU64
	xorl	%edi, %edi
	call	monitor@PLT
.LVL30:
	.loc 1 42 8 view .LVU65
	jmp	.L15
	.cfi_endproc
.LFE1:
	.size	i386_init, .-i386_init
	.section	.rodata.str1.1
.LC3:
	.string	"kernel panic at %s:%d: "
.LC4:
	.string	"\n"
	.text
	.p2align 4
	.globl	_panic
	.type	_panic, @function
_panic:
.LVL31:
.LFB2:
	.loc 1 59 1 view -0
	.cfi_startproc
	.loc 1 59 1 is_stmt 0 view .LVU67
	pushq	%rbx
	.cfi_def_cfa_offset 16
	.cfi_offset 3, -16
	movq	%rdx, %rbx
	subq	$208, %rsp
	.cfi_def_cfa_offset 224
	movq	%rcx, 56(%rsp)
	movq	%r8, 64(%rsp)
	movq	%r9, 72(%rsp)
	testb	%al, %al
	je	.L18
	movaps	%xmm0, 80(%rsp)
	movaps	%xmm1, 96(%rsp)
	movaps	%xmm2, 112(%rsp)
	movaps	%xmm3, 128(%rsp)
	movaps	%xmm4, 144(%rsp)
	movaps	%xmm5, 160(%rsp)
	movaps	%xmm6, 176(%rsp)
	movaps	%xmm7, 192(%rsp)
.L18:
	.loc 1 59 1 view .LVU68
	movq	%fs:40, %rax
	movq	%rax, 24(%rsp)
	xorl	%eax, %eax
	.loc 1 60 2 is_stmt 1 view .LVU69
	.loc 1 62 2 view .LVU70
	.loc 1 62 5 is_stmt 0 view .LVU71
	cmpq	$0, panicstr(%rip)
	je	.L23
.LVL32:
	.p2align 4,,10
	.p2align 3
.L20:
	.loc 1 77 2 is_stmt 1 view .LVU72
	.loc 1 78 3 discriminator 1 view .LVU73
	xorl	%edi, %edi
	call	monitor@PLT
.LVL33:
	.loc 1 77 8 view .LVU74
	jmp	.L20
.LVL34:
.L23:
	.loc 1 64 2 view .LVU75
	.loc 1 64 11 is_stmt 0 view .LVU76
	movq	%rbx, panicstr(%rip)
	.loc 1 67 2 is_stmt 1 view .LVU77
#APP
# 67 "kern/init.c" 1
	cli; cld
# 0 "" 2
	.loc 1 69 2 view .LVU78
#NO_APP
	leaq	224(%rsp), %rax
	.loc 1 70 2 is_stmt 0 view .LVU79
	movl	%esi, %edx
.LVL35:
	.loc 1 70 2 view .LVU80
	movq	%rdi, %rsi
.LVL36:
	.loc 1 69 2 view .LVU81
	movl	$24, (%rsp)
	movq	%rax, 8(%rsp)
	leaq	32(%rsp), %rax
	.loc 1 70 2 view .LVU82
	leaq	.LC3(%rip), %rdi
.LVL37:
	.loc 1 69 2 view .LVU83
	movq	%rax, 16(%rsp)
	.loc 1 70 2 is_stmt 1 view .LVU84
	xorl	%eax, %eax
	.loc 1 69 2 is_stmt 0 view .LVU85
	movl	$48, 4(%rsp)
	.loc 1 70 2 view .LVU86
	call	cprintf@PLT
.LVL38:
	.loc 1 71 2 is_stmt 1 view .LVU87
	movq	%rbx, %rdi
	movq	%rsp, %rsi
	call	vcprintf@PLT
.LVL39:
	.loc 1 72 2 view .LVU88
	leaq	.LC4(%rip), %rdi
	xorl	%eax, %eax
	call	cprintf@PLT
.LVL40:
	.loc 1 73 2 view .LVU89
	jmp	.L20
	.cfi_endproc
.LFE2:
	.size	_panic, .-_panic
	.section	.rodata.str1.1
.LC5:
	.string	"kernel warning at %s:%d: "
	.text
	.p2align 4
	.globl	_warn
	.type	_warn, @function
_warn:
.LVL41:
.LFB3:
	.loc 1 84 1 view -0
	.cfi_startproc
	.loc 1 84 1 is_stmt 0 view .LVU91
	pushq	%rbx
	.cfi_def_cfa_offset 16
	.cfi_offset 3, -16
	movq	%rdx, %rbx
	subq	$208, %rsp
	.cfi_def_cfa_offset 224
	movq	%rcx, 56(%rsp)
	movq	%r8, 64(%rsp)
	movq	%r9, 72(%rsp)
	testb	%al, %al
	je	.L25
	movaps	%xmm0, 80(%rsp)
	movaps	%xmm1, 96(%rsp)
	movaps	%xmm2, 112(%rsp)
	movaps	%xmm3, 128(%rsp)
	movaps	%xmm4, 144(%rsp)
	movaps	%xmm5, 160(%rsp)
	movaps	%xmm6, 176(%rsp)
	movaps	%xmm7, 192(%rsp)
.L25:
	.loc 1 84 1 view .LVU92
	movq	%fs:40, %rax
	movq	%rax, 24(%rsp)
	xorl	%eax, %eax
	.loc 1 85 2 is_stmt 1 view .LVU93
	.loc 1 87 2 view .LVU94
	leaq	224(%rsp), %rax
	.loc 1 88 2 is_stmt 0 view .LVU95
	movl	%esi, %edx
.LVL42:
	.loc 1 88 2 view .LVU96
	movq	%rdi, %rsi
.LVL43:
	.loc 1 87 2 view .LVU97
	movq	%rax, 8(%rsp)
	leaq	32(%rsp), %rax
	.loc 1 88 2 view .LVU98
	leaq	.LC5(%rip), %rdi
.LVL44:
	.loc 1 87 2 view .LVU99
	movq	%rax, 16(%rsp)
	.loc 1 88 2 is_stmt 1 view .LVU100
	xorl	%eax, %eax
	.loc 1 87 2 is_stmt 0 view .LVU101
	movl	$24, (%rsp)
	movl	$48, 4(%rsp)
	.loc 1 88 2 view .LVU102
	call	cprintf@PLT
.LVL45:
	.loc 1 89 2 is_stmt 1 view .LVU103
	movq	%rbx, %rdi
	movq	%rsp, %rsi
	call	vcprintf@PLT
.LVL46:
	.loc 1 90 2 view .LVU104
	xorl	%eax, %eax
	leaq	.LC4(%rip), %rdi
	call	cprintf@PLT
.LVL47:
	.loc 1 91 2 view .LVU105
	.loc 1 92 1 is_stmt 0 view .LVU106
	movq	24(%rsp), %rax
	subq	%fs:40, %rax
	jne	.L28
	addq	$208, %rsp
	.cfi_remember_state
	.cfi_def_cfa_offset 16
	popq	%rbx
	.cfi_def_cfa_offset 8
.LVL48:
	.loc 1 92 1 view .LVU107
	ret
.LVL49:
.L28:
	.cfi_restore_state
	.loc 1 92 1 view .LVU108
	call	__stack_chk_fail@PLT
.LVL50:
	.cfi_endproc
.LFE3:
	.size	_warn, .-_warn
	.globl	panicstr
	.bss
	.align 8
	.type	panicstr, @object
	.size	panicstr, 8
panicstr:
	.zero	8
	.text
.Letext0:
	.file 2 "<built-in>"
	.file 3 "./inc/stdarg.h"
	.file 4 "./inc/types.h"
	.file 5 "./inc/stdio.h"
	.file 6 "./inc/string.h"
	.file 7 "./kern/monitor.h"
	.file 8 "./kern/console.h"
	.section	.note.GNU-stack,"",@progbits
